; Function Attrs: nounwind uwtable
define ptr @l_Lean_Compiler_LCNF_Specialize_instMonadScopeSpecializeM___lambda__2(ptr readnone captures(none) %0, ptr noundef %1, ptr noundef %2, ptr noundef %3, ptr noundef %4, ptr noundef %5, ptr noundef %6, ptr noundef %7, ptr noundef %8, ptr noundef %9) #0 {
  %.val = load i32, ptr %3, align 4, !tbaa !8
  %11 = icmp eq i32 %.val, 1
  %12 = getelementptr inbounds nuw i8, ptr %3, i64 8
  %13 = load ptr, ptr %12, align 8, !tbaa !4
  br i1 %11, label %14, label %16

14:                                               ; preds = %10
  %15 = tail call ptr @lean_apply_1(ptr noundef %1, ptr noundef %13) #4
  store ptr %15, ptr %12, align 8, !tbaa !4
  br label %62

16:                                               ; preds = %10
  %17 = getelementptr inbounds nuw i8, ptr %3, i64 16
  %18 = load ptr, ptr %17, align 8, !tbaa !4
  %19 = getelementptr inbounds nuw i8, ptr %3, i64 24
  %20 = load ptr, ptr %19, align 8, !tbaa !4
  %21 = ptrtoint ptr %20 to i64
  %22 = and i64 %21, 1
  %.not = icmp eq i64 %22, 0
  br i1 %.not, label %23, label %lean_inc.exit41

23:                                               ; preds = %16
  %.val.i = load i32, ptr %20, align 4, !tbaa !8
  %24 = icmp sgt i32 %.val.i, 0
  br i1 %24, label %25, label %27, !prof !11

25:                                               ; preds = %23
  %26 = add nuw i32 %.val.i, 1
  store i32 %26, ptr %20, align 4, !tbaa !8
  br label %lean_inc.exit41

27:                                               ; preds = %23
  %.not.i42 = icmp eq i32 %.val.i, 0
  br i1 %.not.i42, label %lean_inc.exit41, label %28

28:                                               ; preds = %27
  tail call void @lean_inc_ref_cold(ptr noundef nonnull %20) #4
  br label %lean_inc.exit41

lean_inc.exit41:                                  ; preds = %28, %27, %25, %16
  %29 = ptrtoint ptr %18 to i64
  %30 = and i64 %29, 1
  %.not49 = icmp eq i64 %30, 0
  br i1 %.not49, label %31, label %lean_inc.exit40

31:                                               ; preds = %lean_inc.exit41
  %.val.i43 = load i32, ptr %18, align 4, !tbaa !8
  %32 = icmp sgt i32 %.val.i43, 0
  br i1 %32, label %33, label %35, !prof !11

33:                                               ; preds = %31
  %34 = add nuw i32 %.val.i43, 1
  store i32 %34, ptr %18, align 4, !tbaa !8
  br label %lean_inc.exit40

35:                                               ; preds = %31
  %.not.i44 = icmp eq i32 %.val.i43, 0
  br i1 %.not.i44, label %lean_inc.exit40, label %36

36:                                               ; preds = %35
  tail call void @lean_inc_ref_cold(ptr noundef nonnull %18) #4
  br label %lean_inc.exit40

lean_inc.exit40:                                  ; preds = %36, %35, %33, %lean_inc.exit41
  %37 = ptrtoint ptr %13 to i64
  %38 = and i64 %37, 1
  %.not50 = icmp eq i64 %38, 0
  br i1 %.not50, label %39, label %lean_inc.exit

39:                                               ; preds = %lean_inc.exit40
  %.val.i46 = load i32, ptr %13, align 4, !tbaa !8
  %40 = icmp sgt i32 %.val.i46, 0
  br i1 %40, label %41, label %43, !prof !11

41:                                               ; preds = %39
  %42 = add nuw i32 %.val.i46, 1
  store i32 %42, ptr %13, align 4, !tbaa !8
  br label %lean_inc.exit

43:                                               ; preds = %39
  %.not.i47 = icmp eq i32 %.val.i46, 0
  br i1 %.not.i47, label %lean_inc.exit, label %44

44:                                               ; preds = %43
  tail call void @lean_inc_ref_cold(ptr noundef nonnull %13) #4
  br label %lean_inc.exit

lean_inc.exit:                                    ; preds = %44, %43, %41, %lean_inc.exit40
  %45 = ptrtoint ptr %3 to i64
  %46 = and i64 %45, 1
  %.not51 = icmp eq i64 %46, 0
  br i1 %.not51, label %47, label %lean_dec.exit

47:                                               ; preds = %lean_inc.exit
  %48 = load i32, ptr %3, align 4, !tbaa !8
  %49 = icmp sgt i32 %48, 1
  br i1 %49, label %50, label %52, !prof !11

50:                                               ; preds = %47
  %51 = add nsw i32 %48, -1
  store i32 %51, ptr %3, align 4, !tbaa !8
  br label %lean_dec.exit

52:                                               ; preds = %47
  %.not.i = icmp eq i32 %48, 0
  br i1 %.not.i, label %lean_dec.exit, label %53

53:                                               ; preds = %52
  tail call void @lean_dec_ref_cold(ptr noundef nonnull %3) #4
  br label %lean_dec.exit

lean_dec.exit:                                    ; preds = %53, %52, %50, %lean_inc.exit
  %54 = tail call ptr @lean_apply_1(ptr noundef %1, ptr noundef %13) #4
  tail call void @lean_inc_heartbeat() #4
  %55 = tail call noalias ptr @mi_malloc_small(i64 noundef 32) #4
  %56 = icmp eq ptr %55, null
  br i1 %56, label %57, label %lean_alloc_ctor.exit

57:                                               ; preds = %lean_dec.exit
  tail call void @lean_internal_panic_out_of_memory() #5
  unreachable

lean_alloc_ctor.exit:                             ; preds = %lean_dec.exit
  %58 = getelementptr inbounds nuw i8, ptr %55, i64 4
  store i32 1, ptr %55, align 4, !tbaa !8
  store i32 196640, ptr %58, align 4
  %59 = getelementptr inbounds nuw i8, ptr %55, i64 8
  store ptr %54, ptr %59, align 8, !tbaa !4
  %60 = getelementptr inbounds nuw i8, ptr %55, i64 16
  store ptr %18, ptr %60, align 8, !tbaa !4
  %61 = getelementptr inbounds nuw i8, ptr %55, i64 24
  store ptr %20, ptr %61, align 8, !tbaa !4
  br label %62

62:                                               ; preds = %lean_alloc_ctor.exit, %14
  %.sink = phi ptr [ %55, %lean_alloc_ctor.exit ], [ %3, %14 ]
  %63 = tail call ptr @lean_apply_7(ptr noundef %2, ptr noundef nonnull %.sink, ptr noundef %4, ptr noundef %5, ptr noundef %6, ptr noundef %7, ptr noundef %8, ptr noundef %9) #4
  ret ptr %63
}